; Function Attrs: mustprogress uwtable
define hidden void @_ZN4cvc58internal6theory7strings17StringsPreprocessC2ERNS0_3EnvEPNS2_11SkolemCacheEPNS0_13HistogramStatINS0_4kind6Kind_tEEE(ptr noundef nonnull align 8 dereferenceable(80) %0, ptr noundef nonnull align 8 dereferenceable(696) %1, ptr noundef %2, ptr noundef %3) unnamed_addr #3 align 2 personality ptr @__gxx_personality_v0 {
  tail call void @_ZN4cvc58internal6EnvObjC2ERNS0_3EnvE(ptr noundef nonnull align 8 dereferenceable(16) %0, ptr noundef nonnull align 8 dereferenceable(696) %1)
  store ptr getelementptr inbounds nuw inrange(-16, 16) (i8, ptr @_ZTVN4cvc58internal6theory7strings17StringsPreprocessE, i64 16), ptr %0, align 8, !tbaa !3
  %5 = getelementptr inbounds nuw i8, ptr %0, i64 16
  store ptr %2, ptr %5, align 8, !tbaa !6
  %6 = getelementptr inbounds nuw i8, ptr %0, i64 24
  store ptr %3, ptr %6, align 8, !tbaa !24
  %7 = getelementptr inbounds nuw i8, ptr %0, i64 40
  store i32 0, ptr %7, align 8, !tbaa !25
  %8 = getelementptr inbounds nuw i8, ptr %0, i64 48
  store ptr null, ptr %8, align 8, !tbaa !26
  %9 = getelementptr inbounds nuw i8, ptr %0, i64 56
  store ptr %7, ptr %9, align 8, !tbaa !27
  %10 = getelementptr inbounds nuw i8, ptr %0, i64 64
  store ptr %7, ptr %10, align 8, !tbaa !28
  %11 = getelementptr inbounds nuw i8, ptr %0, i64 72
  store i64 0, ptr %11, align 8, !tbaa !29
  ret void
}